target datalayout = "e-m:e-p270:32:32-p271:32:32-p272:64:64-i64:64-i128:128-f80:128-n8:16:32:64-S128"
target triple = "x86_64-pc-linux-gnu"

; Function Attrs: nounwind uwtable
define hidden i32 @_Py_call_instrumentation_arg(ptr noundef %0, i32 noundef %1, ptr noundef %2, ptr noundef %3, ptr noundef %4) #0 {
  %6 = alloca ptr, align 8
  %7 = alloca i32, align 4
  %8 = alloca ptr, align 8
  %9 = alloca ptr, align 8
  %10 = alloca ptr, align 8
  %11 = alloca [4 x ptr], align 16
  store ptr %0, ptr %6, align 8, !tbaa !39
  store i32 %1, ptr %7, align 4, !tbaa !9
  store ptr %2, ptr %8, align 8, !tbaa !41
  store ptr %3, ptr %9, align 8, !tbaa !12
  store ptr %4, ptr %10, align 8, !tbaa !53
  call void @llvm.lifetime.start.p0(i64 32, ptr %11) #8
  call void @llvm.memset.p0.i64(ptr align 16 %11, i8 0, i64 32, i1 false)
  %12 = getelementptr inbounds ptr, ptr %11, i64 3
  %13 = load ptr, ptr %10, align 8, !tbaa !53
  store ptr %13, ptr %12, align 8, !tbaa !53
  %14 = load ptr, ptr %9, align 8, !tbaa !12
  %15 = load ptr, ptr %6, align 8, !tbaa !39
  %16 = load i32, ptr %7, align 4, !tbaa !9
  %17 = load ptr, ptr %8, align 8, !tbaa !41
  %18 = load ptr, ptr %9, align 8, !tbaa !12
  %19 = getelementptr inbounds [4 x ptr], ptr %11, i64 0, i64 0
  %20 = call i32 @call_instrumentation_vector(ptr noundef %14, ptr noundef %15, i32 noundef %16, ptr noundef %17, ptr noundef %18, i64 noundef 3, ptr noundef %19)
  call void @llvm.lifetime.end.p0(i64 32, ptr %11) #8
  ret i32 %20
}