; Function Attrs: nounwind uwtable
define hidden range(i32 -1, 1) i32 @_Py_call_instrumentation_arg(ptr noundef %0, i32 noundef %1, ptr noundef readonly captures(none) %2, ptr noundef %3, ptr noundef %4) local_unnamed_addr #2 {
  %6 = alloca [4 x ptr], align 16
  call void @llvm.lifetime.start.p0(i64 32, ptr nonnull %6) #11
  call void @llvm.memset.p0.i64(ptr noundef nonnull align 16 dereferenceable(32) %6, i8 0, i64 32, i1 false)
  %7 = getelementptr inbounds nuw i8, ptr %6, i64 24
  store ptr %4, ptr %7, align 8, !tbaa !46
  %8 = call fastcc i32 @call_instrumentation_vector(ptr noundef %3, ptr noundef %0, i32 noundef %1, ptr noundef %2, ptr noundef %3, i64 noundef 3, ptr noundef %6)
  call void @llvm.lifetime.end.p0(i64 32, ptr nonnull %6) #11
  ret i32 %8
}